target datalayout = "e-m:e-p270:32:32-p271:32:32-p272:64:64-i64:64-i128:128-f80:128-n8:16:32:64-S128"
target triple = "x86_64-pc-linux-gnu"

%struct.sp_int = type { i16, i16, [129 x i64] }

; Function Attrs: nounwind uwtable
define i32 @sp_grow(ptr noundef %0, i32 noundef %1) #0 {
  %3 = alloca ptr, align 8
  %4 = alloca i32, align 4
  %5 = alloca i32, align 4
  %6 = alloca i32, align 4
  store ptr %0, ptr %3, align 8, !tbaa !3
  store i32 %1, ptr %4, align 4, !tbaa !8
  call void @llvm.lifetime.start.p0(i64 4, ptr %5) #8
  store i32 0, ptr %5, align 4, !tbaa !8
  %7 = load ptr, ptr %3, align 8, !tbaa !3
  %8 = icmp eq ptr %7, null
  br i1 %8, label %12, label %9

9:                                                ; preds = %2
  %10 = load i32, ptr %4, align 4, !tbaa !8
  %11 = icmp slt i32 %10, 0
  br i1 %11, label %12, label %13

12:                                               ; preds = %9, %2
  store i32 -98, ptr %5, align 4, !tbaa !8
  br label %13

13:                                               ; preds = %12, %9
  %14 = load i32, ptr %5, align 4, !tbaa !8
  %15 = icmp eq i32 %14, 0
  br i1 %15, label %16, label %24

16:                                               ; preds = %13
  %17 = load i32, ptr %4, align 4, !tbaa !8
  %18 = load ptr, ptr %3, align 8, !tbaa !3
  %19 = getelementptr inbounds nuw %struct.sp_int, ptr %18, i32 0, i32 1
  %20 = load i16, ptr %19, align 2, !tbaa !12
  %21 = zext i16 %20 to i32
  %22 = icmp ugt i32 %17, %21
  br i1 %22, label %23, label %24

23:                                               ; preds = %16
  store i32 -97, ptr %5, align 4, !tbaa !8
  br label %24

24:                                               ; preds = %23, %16, %13
  %25 = load i32, ptr %5, align 4, !tbaa !8
  %26 = icmp eq i32 %25, 0
  br i1 %26, label %27, label %46

27:                                               ; preds = %24
  call void @llvm.lifetime.start.p0(i64 4, ptr %6) #8
  %28 = load ptr, ptr %3, align 8, !tbaa !3
  %29 = getelementptr inbounds nuw %struct.sp_int, ptr %28, i32 0, i32 0
  %30 = load i16, ptr %29, align 8, !tbaa !15
  %31 = zext i16 %30 to i32
  store i32 %31, ptr %6, align 4, !tbaa !8
  br label %32

32:                                               ; preds = %42, %27
  %33 = load i32, ptr %6, align 4, !tbaa !8
  %34 = load i32, ptr %4, align 4, !tbaa !8
  %35 = icmp ult i32 %33, %34
  br i1 %35, label %36, label %45

36:                                               ; preds = %32
  %37 = load ptr, ptr %3, align 8, !tbaa !3
  %38 = getelementptr inbounds nuw %struct.sp_int, ptr %37, i32 0, i32 2
  %39 = load i32, ptr %6, align 4, !tbaa !8
  %40 = zext i32 %39 to i64
  %41 = getelementptr inbounds nuw [129 x i64], ptr %38, i64 0, i64 %40
  store i64 0, ptr %41, align 8, !tbaa !16
  br label %42

42:                                               ; preds = %36
  %43 = load i32, ptr %6, align 4, !tbaa !8
  %44 = add i32 %43, 1
  store i32 %44, ptr %6, align 4, !tbaa !8
  br label %32, !llvm.loop !18

45:                                               ; preds = %32
  call void @llvm.lifetime.end.p0(i64 4, ptr %6) #8
  br label %46

46:                                               ; preds = %45, %24
  %47 = load i32, ptr %5, align 4, !tbaa !8
  call void @llvm.lifetime.end.p0(i64 4, ptr %5) #8
  ret i32 %47
}