; Function Attrs: mustprogress nofree norecurse nosync nounwind willreturn memory(argmem: readwrite) uwtable
define range(i32 -98, 1) i32 @sp_grow(ptr noundef captures(address_is_null) %0, i32 noundef %1) local_unnamed_addr #3 {
  %3 = icmp ne ptr %0, null
  %4 = icmp sgt i32 %1, -1
  %or.cond.not = and i1 %3, %4
  br i1 %or.cond.not, label %5, label %.thread18

5:                                                ; preds = %2
  %6 = getelementptr inbounds nuw i8, ptr %0, i64 2
  %7 = load i16, ptr %6, align 2, !tbaa !10
  %8 = zext i16 %7 to i32
  %9 = icmp samesign ugt i32 %1, %8
  br i1 %9, label %.thread18, label %.thread

.thread:                                          ; preds = %5
  %10 = load i16, ptr %0, align 8, !tbaa !12
  %11 = zext i16 %10 to i32
  %12 = icmp samesign ugt i32 %1, %11
  br i1 %12, label %.lr.ph, label %.thread18

.lr.ph:                                           ; preds = %.thread
  %13 = zext i16 %10 to i64
  %14 = shl nuw nsw i64 %13, 3
  %15 = getelementptr i8, ptr %0, i64 %14
  %scevgep = getelementptr i8, ptr %15, i64 8
  %16 = xor i32 %11, -1
  %17 = add nsw i32 %1, %16
  %18 = zext i32 %17 to i64
  %19 = shl nuw nsw i64 %18, 3
  %20 = add nuw nsw i64 %19, 8
  tail call void @llvm.memset.p0.i64(ptr noundef nonnull align 8 dereferenceable(1) %scevgep, i8 0, i64 %20, i1 false), !tbaa !8
  br label %.thread18

.thread18:                                        ; preds = %.lr.ph, %.thread, %2, %5
  %.01316 = phi i32 [ -97, %5 ], [ -98, %2 ], [ 0, %.thread ], [ 0, %.lr.ph ]
  ret i32 %.01316
}